; Function Attrs: mustprogress uwtable
define void @_ZN7jsonnet8internal12CompilerPass4exprERPNS0_3ASTE(ptr noundef nonnull align 8 dereferenceable(16) %0, ptr noundef nonnull align 8 dereferenceable(8) %1) unnamed_addr #4 align 2 {
  %3 = load ptr, ptr %1, align 8, !tbaa !54
  %4 = getelementptr inbounds nuw i8, ptr %3, i64 80
  %5 = load ptr, ptr %0, align 8, !tbaa !17
  %6 = getelementptr inbounds nuw i8, ptr %5, i64 8
  %7 = load ptr, ptr %6, align 8
  tail call void %7(ptr noundef nonnull align 8 dereferenceable(16) %0, ptr noundef nonnull align 8 dereferenceable(24) %4)
  %8 = load ptr, ptr %0, align 8, !tbaa !17
  %9 = getelementptr inbounds nuw i8, ptr %8, i64 296
  %10 = load ptr, ptr %9, align 8
  tail call void %10(ptr noundef nonnull align 8 dereferenceable(16) %0, ptr noundef nonnull align 8 dereferenceable(8) %1)
  ret void
}